; Function Attrs: mustprogress uwtable
define hidden noundef zeroext i1 @_ZNK5osgeo4proj8NTv1Grid7valueAtEiibRfS2_(ptr noundef nonnull readonly align 8 captures(none) dereferenceable(160) %0, i32 noundef %1, i32 noundef %2, i1 noundef zeroext %3, ptr noundef nonnull writeonly align 4 captures(none) dereferenceable(4) %4, ptr noundef nonnull writeonly align 4 captures(none) dereferenceable(4) %5) unnamed_addr #2 align 2 {
  %7 = alloca [2 x double], align 16
  call void @llvm.lifetime.start.p0(i64 16, ptr nonnull %7) #34
  %8 = getelementptr inbounds nuw i8, ptr %0, i64 152
  %9 = load ptr, ptr %8, align 8, !tbaa !80
  %10 = getelementptr inbounds nuw i8, ptr %0, i64 40
  %11 = load i32, ptr %10, align 8, !tbaa !31
  %12 = add i32 %2, 1
  %13 = mul i32 %11, %12
  %14 = xor i32 %1, -1
  %15 = add i32 %13, %14
  %16 = sext i32 %15 to i64
  %17 = shl nsw i64 %16, 4
  %18 = add nsw i64 %17, 192
  %19 = load ptr, ptr %9, align 8, !tbaa !19
  %20 = getelementptr inbounds nuw i8, ptr %19, i64 32
  %21 = load ptr, ptr %20, align 8
  %22 = tail call noundef zeroext i1 %21(ptr noundef nonnull align 8 dereferenceable(73) %9, i64 noundef %18, i32 noundef 0)
  %23 = load ptr, ptr %8, align 8, !tbaa !80
  %24 = load ptr, ptr %23, align 8, !tbaa !19
  %25 = getelementptr inbounds nuw i8, ptr %24, i64 16
  %26 = load ptr, ptr %25, align 8
  %27 = call noundef i64 %26(ptr noundef nonnull align 8 dereferenceable(73) %23, ptr noundef nonnull %7, i64 noundef 16)
  %.not = icmp eq i64 %27, 16
  br i1 %.not, label %.preheader.us.i, label %28

28:                                               ; preds = %6
  %29 = getelementptr inbounds nuw i8, ptr %0, i64 144
  %30 = load ptr, ptr %29, align 8, !tbaa !302
  call void @_Z22proj_context_errno_setP6pj_ctxi(ptr noundef %30, i32 noundef 1029)
  br label %49

.preheader.us.i:                                  ; preds = %6, %._crit_edge.us.i
  %.023.us.i = phi ptr [ %31, %._crit_edge.us.i ], [ %7, %6 ]
  %.02022.us.i = phi i64 [ %39, %._crit_edge.us.i ], [ 0, %6 ]
  %31 = getelementptr i8, ptr %.023.us.i, i64 8
  br label %32

32:                                               ; preds = %32, %.preheader.us.i
  %.01921.us.i = phi i64 [ 0, %.preheader.us.i ], [ %38, %32 ]
  %33 = getelementptr inbounds nuw i8, ptr %.023.us.i, i64 %.01921.us.i
  %34 = load i8, ptr %33, align 1, !tbaa !30
  %35 = xor i64 %.01921.us.i, -1
  %36 = getelementptr i8, ptr %31, i64 %35
  %37 = load i8, ptr %36, align 1, !tbaa !30
  store i8 %37, ptr %33, align 1, !tbaa !30
  store i8 %34, ptr %36, align 1, !tbaa !30
  %38 = add nuw nsw i64 %.01921.us.i, 1
  %exitcond.not.i = icmp eq i64 %38, 4
  br i1 %exitcond.not.i, label %._crit_edge.us.i, label %32, !llvm.loop !90

._crit_edge.us.i:                                 ; preds = %32
  %39 = add nuw nsw i64 %.02022.us.i, 1
  %exitcond27.not.i = icmp eq i64 %39, 2
  br i1 %exitcond27.not.i, label %_ZN5osgeo4projL10swap_wordsEPvmm.exit, label %.preheader.us.i, !llvm.loop !91

_ZN5osgeo4projL10swap_wordsEPvmm.exit:            ; preds = %._crit_edge.us.i
  %40 = load double, ptr %7, align 16, !tbaa !37
  %41 = fmul double %40, 0x3ED455A5B2FF8F9D
  %42 = fptrunc double %41 to float
  store float %42, ptr %5, align 4, !tbaa !38
  %43 = getelementptr inbounds nuw i8, ptr %7, i64 8
  %44 = load double, ptr %43, align 8, !tbaa !37
  %45 = fmul double %44, 0x3ED455A5B2FF8F9D
  %46 = fptrunc double %45 to float
  %47 = fneg float %46
  %48 = select i1 %3, float %47, float %46
  store float %48, ptr %4, align 4, !tbaa !38
  br label %49

49:                                               ; preds = %_ZN5osgeo4projL10swap_wordsEPvmm.exit, %28
  call void @llvm.lifetime.end.p0(i64 16, ptr nonnull %7) #34
  ret i1 %.not
}